target datalayout = "e-m:e-p270:32:32-p271:32:32-p272:64:64-i64:64-i128:128-f80:128-n8:16:32:64-S128"
target triple = "x86_64-pc-linux-gnu"

%class.Type = type { i32, ptr, i32, %"class.std::vector.8", %"class.std::vector.13", i32, i8, i8, i8, i8, i8, %"class.std::vector.18", %"class.std::vector.23" }
%"class.std::vector.8" = type { %"struct.std::_Vector_base.9" }
%"struct.std::_Vector_base.9" = type { %"struct.std::_Vector_base<unsigned int, std::allocator<unsigned int>>::_Vector_impl" }
%"struct.std::_Vector_base<unsigned int, std::allocator<unsigned int>>::_Vector_impl" = type { %"struct.std::_Vector_base<unsigned int, std::allocator<unsigned int>>::_Vector_impl_data" }
%"struct.std::_Vector_base<unsigned int, std::allocator<unsigned int>>::_Vector_impl_data" = type { ptr, ptr, ptr }
%"class.std::vector.13" = type { %"struct.std::_Vector_base.14" }
%"struct.std::_Vector_base.14" = type { %"struct.std::_Vector_base<const Type *, std::allocator<const Type *>>::_Vector_impl" }
%"struct.std::_Vector_base<const Type *, std::allocator<const Type *>>::_Vector_impl" = type { %"struct.std::_Vector_base<const Type *, std::allocator<const Type *>>::_Vector_impl_data" }
%"struct.std::_Vector_base<const Type *, std::allocator<const Type *>>::_Vector_impl_data" = type { ptr, ptr, ptr }
%"class.std::vector.18" = type { %"struct.std::_Vector_base.19" }
%"struct.std::_Vector_base.19" = type { %"struct.std::_Vector_base<CVQualifiers, std::allocator<CVQualifiers>>::_Vector_impl" }
%"struct.std::_Vector_base<CVQualifiers, std::allocator<CVQualifiers>>::_Vector_impl" = type { %"struct.std::_Vector_base<CVQualifiers, std::allocator<CVQualifiers>>::_Vector_impl_data" }
%"struct.std::_Vector_base<CVQualifiers, std::allocator<CVQualifiers>>::_Vector_impl_data" = type { ptr, ptr, ptr }
%"class.std::vector.23" = type { %"struct.std::_Vector_base.24" }
%"struct.std::_Vector_base.24" = type { %"struct.std::_Vector_base<int, std::allocator<int>>::_Vector_impl" }
%"struct.std::_Vector_base<int, std::allocator<int>>::_Vector_impl" = type { %"struct.std::_Vector_base<int, std::allocator<int>>::_Vector_impl_data" }
%"struct.std::_Vector_base<int, std::allocator<int>>::_Vector_impl_data" = type { ptr, ptr, ptr }

@.str.43 = private unnamed_addr constant [5 x i8] c"    \00", align 1
@.str.44 = private unnamed_addr constant [10 x i8] c"volatile \00", align 1
@.str.45 = private unnamed_addr constant [19 x i8] c"& operator=(const \00", align 1
@.str.46 = private unnamed_addr constant [8 x i8] c"& val) \00", align 1
@.str.47 = private unnamed_addr constant [2 x i8] c"{\00", align 1
@.str.48 = private unnamed_addr constant [28 x i8] c"        if (this == &val) {\00", align 1
@.str.49 = private unnamed_addr constant [26 x i8] c"            return *this;\00", align 1
@.str.50 = private unnamed_addr constant [10 x i8] c"        }\00", align 1
@.str.55 = private unnamed_addr constant [22 x i8] c"        return *this;\00", align 1
@.str.56 = private unnamed_addr constant [6 x i8] c"    }\00", align 1
@.str.57 = private unnamed_addr constant [17 x i8] c"        memcpy((\00", align 1
@.str.58 = private unnamed_addr constant [16 x i8] c"*)this, (const \00", align 1
@.str.59 = private unnamed_addr constant [18 x i8] c"*)(&val), sizeof(\00", align 1
@.str.60 = private unnamed_addr constant [5 x i8] c")); \00", align 1

; Function Attrs: mustprogress nounwind uwtable
define linkonce_odr dso_local noundef zeroext i1 @_ZNK4Type14has_assign_opsEv(ptr noundef nonnull align 8 dereferenceable(136) %0) #4 comdat align 2 {
  %2 = alloca ptr, align 8
  store ptr %0, ptr %2, align 8
  %3 = load ptr, ptr %2, align 8
  %4 = getelementptr inbounds %class.Type, ptr %3, i32 0, i32 9
  %5 = load i8, ptr %4, align 1
  %6 = trunc i8 %5 to i1
  ret i1 %6
}

; Function Attrs: mustprogress uwtable
define dso_local void @_Z20OutputUnionAssignOpsP4TypeRSob(ptr noundef %0, ptr noundef nonnull align 8 dereferenceable(8) %1, i1 noundef zeroext %2) #5 {
  %4 = alloca ptr, align 8
  %5 = alloca ptr, align 8
  %6 = alloca i8, align 1
  store ptr %0, ptr %4, align 8
  store ptr %1, ptr %5, align 8
  %7 = zext i1 %2 to i8
  store i8 %7, ptr %6, align 1
  %8 = call noundef zeroext i1 @_ZN9CGOptions8lang_cppEv()
  br i1 %8, label %9, label %80

9:                                                ; preds = %3
  %10 = load ptr, ptr %4, align 8
  %11 = call noundef zeroext i1 @_ZNK4Type14has_assign_opsEv(ptr noundef nonnull align 8 dereferenceable(136) %10)
  br i1 %11, label %12, label %79

12:                                               ; preds = %9
  %13 = load ptr, ptr %4, align 8
  %14 = getelementptr inbounds %class.Type, ptr %13, i32 0, i32 0
  %15 = load i32, ptr %14, align 8
  %16 = icmp eq i32 %15, 2
  br i1 %16, label %17, label %79

17:                                               ; preds = %12
  %18 = load ptr, ptr %5, align 8
  %19 = call noundef nonnull align 8 dereferenceable(8) ptr @_ZStlsISt11char_traitsIcEERSt13basic_ostreamIcT_ES5_PKc(ptr noundef nonnull align 8 dereferenceable(8) %18, ptr noundef @.str.43)
  %20 = load i8, ptr %6, align 1
  %21 = trunc i8 %20 to i1
  br i1 %21, label %22, label %25

22:                                               ; preds = %17
  %23 = load ptr, ptr %5, align 8
  %24 = call noundef nonnull align 8 dereferenceable(8) ptr @_ZStlsISt11char_traitsIcEERSt13basic_ostreamIcT_ES5_PKc(ptr noundef nonnull align 8 dereferenceable(8) %23, ptr noundef @.str.44)
  br label %25

25:                                               ; preds = %22, %17
  %26 = load ptr, ptr %4, align 8
  %27 = load ptr, ptr %5, align 8
  call void @_ZNK4Type6OutputERSo(ptr noundef nonnull align 8 dereferenceable(136) %26, ptr noundef nonnull align 8 dereferenceable(8) %27)
  %28 = load ptr, ptr %5, align 8
  %29 = call noundef nonnull align 8 dereferenceable(8) ptr @_ZStlsISt11char_traitsIcEERSt13basic_ostreamIcT_ES5_PKc(ptr noundef nonnull align 8 dereferenceable(8) %28, ptr noundef @.str.45)
  %30 = load i8, ptr %6, align 1
  %31 = trunc i8 %30 to i1
  br i1 %31, label %32, label %35

32:                                               ; preds = %25
  %33 = load ptr, ptr %5, align 8
  %34 = call noundef nonnull align 8 dereferenceable(8) ptr @_ZStlsISt11char_traitsIcEERSt13basic_ostreamIcT_ES5_PKc(ptr noundef nonnull align 8 dereferenceable(8) %33, ptr noundef @.str.44)
  br label %35

35:                                               ; preds = %32, %25
  %36 = load ptr, ptr %4, align 8
  %37 = load ptr, ptr %5, align 8
  call void @_ZNK4Type6OutputERSo(ptr noundef nonnull align 8 dereferenceable(136) %36, ptr noundef nonnull align 8 dereferenceable(8) %37)
  %38 = load ptr, ptr %5, align 8
  %39 = call noundef nonnull align 8 dereferenceable(8) ptr @_ZStlsISt11char_traitsIcEERSt13basic_ostreamIcT_ES5_PKc(ptr noundef nonnull align 8 dereferenceable(8) %38, ptr noundef @.str.46)
  %40 = load i8, ptr %6, align 1
  %41 = trunc i8 %40 to i1
  br i1 %41, label %42, label %45

42:                                               ; preds = %35
  %43 = load ptr, ptr %5, align 8
  %44 = call noundef nonnull align 8 dereferenceable(8) ptr @_ZStlsISt11char_traitsIcEERSt13basic_ostreamIcT_ES5_PKc(ptr noundef nonnull align 8 dereferenceable(8) %43, ptr noundef @.str.44)
  br label %45

45:                                               ; preds = %42, %35
  %46 = load ptr, ptr %5, align 8
  %47 = call noundef nonnull align 8 dereferenceable(8) ptr @_ZStlsISt11char_traitsIcEERSt13basic_ostreamIcT_ES5_PKc(ptr noundef nonnull align 8 dereferenceable(8) %46, ptr noundef @.str.47)
  %48 = load ptr, ptr %5, align 8
  call void @_Z15really_outputlnRSo(ptr noundef nonnull align 8 dereferenceable(8) %48)
  %49 = load ptr, ptr %5, align 8
  %50 = call noundef nonnull align 8 dereferenceable(8) ptr @_ZStlsISt11char_traitsIcEERSt13basic_ostreamIcT_ES5_PKc(ptr noundef nonnull align 8 dereferenceable(8) %49, ptr noundef @.str.48)
  %51 = load ptr, ptr %5, align 8
  call void @_Z15really_outputlnRSo(ptr noundef nonnull align 8 dereferenceable(8) %51)
  %52 = load ptr, ptr %5, align 8
  %53 = call noundef nonnull align 8 dereferenceable(8) ptr @_ZStlsISt11char_traitsIcEERSt13basic_ostreamIcT_ES5_PKc(ptr noundef nonnull align 8 dereferenceable(8) %52, ptr noundef @.str.49)
  %54 = load ptr, ptr %5, align 8
  call void @_Z15really_outputlnRSo(ptr noundef nonnull align 8 dereferenceable(8) %54)
  %55 = load ptr, ptr %5, align 8
  %56 = call noundef nonnull align 8 dereferenceable(8) ptr @_ZStlsISt11char_traitsIcEERSt13basic_ostreamIcT_ES5_PKc(ptr noundef nonnull align 8 dereferenceable(8) %55, ptr noundef @.str.50)
  %57 = load ptr, ptr %5, align 8
  call void @_Z15really_outputlnRSo(ptr noundef nonnull align 8 dereferenceable(8) %57)
  %58 = load ptr, ptr %5, align 8
  %59 = call noundef nonnull align 8 dereferenceable(8) ptr @_ZStlsISt11char_traitsIcEERSt13basic_ostreamIcT_ES5_PKc(ptr noundef nonnull align 8 dereferenceable(8) %58, ptr noundef @.str.57)
  %60 = load ptr, ptr %4, align 8
  %61 = load ptr, ptr %5, align 8
  call void @_ZNK4Type6OutputERSo(ptr noundef nonnull align 8 dereferenceable(136) %60, ptr noundef nonnull align 8 dereferenceable(8) %61)
  %62 = load ptr, ptr %5, align 8
  %63 = call noundef nonnull align 8 dereferenceable(8) ptr @_ZStlsISt11char_traitsIcEERSt13basic_ostreamIcT_ES5_PKc(ptr noundef nonnull align 8 dereferenceable(8) %62, ptr noundef @.str.58)
  %64 = load ptr, ptr %4, align 8
  %65 = load ptr, ptr %5, align 8
  call void @_ZNK4Type6OutputERSo(ptr noundef nonnull align 8 dereferenceable(136) %64, ptr noundef nonnull align 8 dereferenceable(8) %65)
  %66 = load ptr, ptr %5, align 8
  %67 = call noundef nonnull align 8 dereferenceable(8) ptr @_ZStlsISt11char_traitsIcEERSt13basic_ostreamIcT_ES5_PKc(ptr noundef nonnull align 8 dereferenceable(8) %66, ptr noundef @.str.59)
  %68 = load ptr, ptr %4, align 8
  %69 = load ptr, ptr %5, align 8
  call void @_ZNK4Type6OutputERSo(ptr noundef nonnull align 8 dereferenceable(136) %68, ptr noundef nonnull align 8 dereferenceable(8) %69)
  %70 = load ptr, ptr %5, align 8
  %71 = call noundef nonnull align 8 dereferenceable(8) ptr @_ZStlsISt11char_traitsIcEERSt13basic_ostreamIcT_ES5_PKc(ptr noundef nonnull align 8 dereferenceable(8) %70, ptr noundef @.str.60)
  %72 = load ptr, ptr %5, align 8
  call void @_Z15really_outputlnRSo(ptr noundef nonnull align 8 dereferenceable(8) %72)
  %73 = load ptr, ptr %5, align 8
  %74 = call noundef nonnull align 8 dereferenceable(8) ptr @_ZStlsISt11char_traitsIcEERSt13basic_ostreamIcT_ES5_PKc(ptr noundef nonnull align 8 dereferenceable(8) %73, ptr noundef @.str.55)
  %75 = load ptr, ptr %5, align 8
  call void @_Z15really_outputlnRSo(ptr noundef nonnull align 8 dereferenceable(8) %75)
  %76 = load ptr, ptr %5, align 8
  %77 = call noundef nonnull align 8 dereferenceable(8) ptr @_ZStlsISt11char_traitsIcEERSt13basic_ostreamIcT_ES5_PKc(ptr noundef nonnull align 8 dereferenceable(8) %76, ptr noundef @.str.56)
  %78 = load ptr, ptr %5, align 8
  call void @_Z15really_outputlnRSo(ptr noundef nonnull align 8 dereferenceable(8) %78)
  br label %79

79:                                               ; preds = %45, %12, %9
  br label %80

80:                                               ; preds = %79, %3
  ret void
}