; Function Attrs: mustprogress uwtable
define dso_local void @_Z20OutputUnionAssignOpsP4TypeRSob(ptr nocapture noundef readonly %0, ptr noundef nonnull align 8 dereferenceable(8) %1, i1 noundef zeroext %2) local_unnamed_addr #4 {
  %4 = tail call noundef zeroext i1 @_ZN9CGOptions8lang_cppEv()
  br i1 %4, label %5, label %33

5:                                                ; preds = %3
  %6 = getelementptr inbounds i8, ptr %0, i64 79
  %7 = load i8, ptr %6, align 1
  %8 = and i8 %7, 1
  %.not = icmp eq i8 %8, 0
  br i1 %.not, label %33, label %9

9:                                                ; preds = %5
  %10 = load i32, ptr %0, align 8
  %11 = icmp eq i32 %10, 2
  br i1 %11, label %12, label %33

12:                                               ; preds = %9
  %13 = tail call noundef nonnull align 8 dereferenceable(8) ptr @_ZStlsISt11char_traitsIcEERSt13basic_ostreamIcT_ES5_PKc(ptr noundef nonnull align 8 dereferenceable(8) %1, ptr noundef nonnull @.str.43)
  br i1 %2, label %14, label %.critedge

14:                                               ; preds = %12
  %15 = tail call noundef nonnull align 8 dereferenceable(8) ptr @_ZStlsISt11char_traitsIcEERSt13basic_ostreamIcT_ES5_PKc(ptr noundef nonnull align 8 dereferenceable(8) %1, ptr noundef nonnull @.str.44)
  tail call void @_ZNK4Type6OutputERSo(ptr noundef nonnull align 8 dereferenceable(136) %0, ptr noundef nonnull align 8 dereferenceable(8) %1)
  %16 = tail call noundef nonnull align 8 dereferenceable(8) ptr @_ZStlsISt11char_traitsIcEERSt13basic_ostreamIcT_ES5_PKc(ptr noundef nonnull align 8 dereferenceable(8) %1, ptr noundef nonnull @.str.45)
  br label %17

.critedge:                                        ; preds = %12
  tail call void @_ZNK4Type6OutputERSo(ptr noundef nonnull align 8 dereferenceable(136) %0, ptr noundef nonnull align 8 dereferenceable(8) %1)
  br label %17

17:                                               ; preds = %.critedge, %14
  %.str.45.sink = phi ptr [ @.str.45, %.critedge ], [ @.str.44, %14 ]
  %18 = tail call noundef nonnull align 8 dereferenceable(8) ptr @_ZStlsISt11char_traitsIcEERSt13basic_ostreamIcT_ES5_PKc(ptr noundef nonnull align 8 dereferenceable(8) %1, ptr noundef nonnull %.str.45.sink)
  tail call void @_ZNK4Type6OutputERSo(ptr noundef nonnull align 8 dereferenceable(136) %0, ptr noundef nonnull align 8 dereferenceable(8) %1)
  %19 = tail call noundef nonnull align 8 dereferenceable(8) ptr @_ZStlsISt11char_traitsIcEERSt13basic_ostreamIcT_ES5_PKc(ptr noundef nonnull align 8 dereferenceable(8) %1, ptr noundef nonnull @.str.46)
  br i1 %2, label %20, label %22

20:                                               ; preds = %17
  %21 = tail call noundef nonnull align 8 dereferenceable(8) ptr @_ZStlsISt11char_traitsIcEERSt13basic_ostreamIcT_ES5_PKc(ptr noundef nonnull align 8 dereferenceable(8) %1, ptr noundef nonnull @.str.44)
  br label %22

22:                                               ; preds = %20, %17
  %23 = tail call noundef nonnull align 8 dereferenceable(8) ptr @_ZStlsISt11char_traitsIcEERSt13basic_ostreamIcT_ES5_PKc(ptr noundef nonnull align 8 dereferenceable(8) %1, ptr noundef nonnull @.str.47)
  tail call void @_Z15really_outputlnRSo(ptr noundef nonnull align 8 dereferenceable(8) %1)
  %24 = tail call noundef nonnull align 8 dereferenceable(8) ptr @_ZStlsISt11char_traitsIcEERSt13basic_ostreamIcT_ES5_PKc(ptr noundef nonnull align 8 dereferenceable(8) %1, ptr noundef nonnull @.str.48)
  tail call void @_Z15really_outputlnRSo(ptr noundef nonnull align 8 dereferenceable(8) %1)
  %25 = tail call noundef nonnull align 8 dereferenceable(8) ptr @_ZStlsISt11char_traitsIcEERSt13basic_ostreamIcT_ES5_PKc(ptr noundef nonnull align 8 dereferenceable(8) %1, ptr noundef nonnull @.str.49)
  tail call void @_Z15really_outputlnRSo(ptr noundef nonnull align 8 dereferenceable(8) %1)
  %26 = tail call noundef nonnull align 8 dereferenceable(8) ptr @_ZStlsISt11char_traitsIcEERSt13basic_ostreamIcT_ES5_PKc(ptr noundef nonnull align 8 dereferenceable(8) %1, ptr noundef nonnull @.str.50)
  tail call void @_Z15really_outputlnRSo(ptr noundef nonnull align 8 dereferenceable(8) %1)
  %27 = tail call noundef nonnull align 8 dereferenceable(8) ptr @_ZStlsISt11char_traitsIcEERSt13basic_ostreamIcT_ES5_PKc(ptr noundef nonnull align 8 dereferenceable(8) %1, ptr noundef nonnull @.str.57)
  tail call void @_ZNK4Type6OutputERSo(ptr noundef nonnull align 8 dereferenceable(136) %0, ptr noundef nonnull align 8 dereferenceable(8) %1)
  %28 = tail call noundef nonnull align 8 dereferenceable(8) ptr @_ZStlsISt11char_traitsIcEERSt13basic_ostreamIcT_ES5_PKc(ptr noundef nonnull align 8 dereferenceable(8) %1, ptr noundef nonnull @.str.58)
  tail call void @_ZNK4Type6OutputERSo(ptr noundef nonnull align 8 dereferenceable(136) %0, ptr noundef nonnull align 8 dereferenceable(8) %1)
  %29 = tail call noundef nonnull align 8 dereferenceable(8) ptr @_ZStlsISt11char_traitsIcEERSt13basic_ostreamIcT_ES5_PKc(ptr noundef nonnull align 8 dereferenceable(8) %1, ptr noundef nonnull @.str.59)
  tail call void @_ZNK4Type6OutputERSo(ptr noundef nonnull align 8 dereferenceable(136) %0, ptr noundef nonnull align 8 dereferenceable(8) %1)
  %30 = tail call noundef nonnull align 8 dereferenceable(8) ptr @_ZStlsISt11char_traitsIcEERSt13basic_ostreamIcT_ES5_PKc(ptr noundef nonnull align 8 dereferenceable(8) %1, ptr noundef nonnull @.str.60)
  tail call void @_Z15really_outputlnRSo(ptr noundef nonnull align 8 dereferenceable(8) %1)
  %31 = tail call noundef nonnull align 8 dereferenceable(8) ptr @_ZStlsISt11char_traitsIcEERSt13basic_ostreamIcT_ES5_PKc(ptr noundef nonnull align 8 dereferenceable(8) %1, ptr noundef nonnull @.str.55)
  tail call void @_Z15really_outputlnRSo(ptr noundef nonnull align 8 dereferenceable(8) %1)
  %32 = tail call noundef nonnull align 8 dereferenceable(8) ptr @_ZStlsISt11char_traitsIcEERSt13basic_ostreamIcT_ES5_PKc(ptr noundef nonnull align 8 dereferenceable(8) %1, ptr noundef nonnull @.str.56)
  tail call void @_Z15really_outputlnRSo(ptr noundef nonnull align 8 dereferenceable(8) %1)
  br label %33

33:                                               ; preds = %5, %9, %22, %3
  ret void
}